target datalayout = "e-m:e-p270:32:32-p271:32:32-p272:64:64-i64:64-i128:128-f80:128-n8:16:32:64-S128"
target triple = "x86_64-pc-linux-gnu"

%struct.aiString = type { i32, [1024 x i8] }
%struct.aiTexture = type <{ i32, i32, [9 x i8], [7 x i8], ptr, %struct.aiString, [4 x i8] }>

; Function Attrs: mustprogress nounwind uwtable
define linkonce_odr hidden noundef nonnull align 4 dereferenceable(1028) ptr @_ZN8aiStringaSERKS_(ptr noundef nonnull align 4 dereferenceable(1028) %0, ptr noundef nonnull align 4 dereferenceable(1028) %1) #4 comdat align 2 {
  %3 = alloca ptr, align 8
  %4 = alloca ptr, align 8
  %5 = alloca ptr, align 8
  store ptr %0, ptr %4, align 8
  store ptr %1, ptr %5, align 8
  %6 = load ptr, ptr %4, align 8
  %7 = load ptr, ptr %5, align 8
  %8 = icmp eq ptr %6, %7
  br i1 %8, label %9, label %10

9:                                                ; preds = %2
  store ptr %6, ptr %3, align 8
  br label %35

10:                                               ; preds = %2
  %11 = load ptr, ptr %5, align 8
  %12 = getelementptr inbounds nuw %struct.aiString, ptr %11, i32 0, i32 0
  %13 = load i32, ptr %12, align 4
  %14 = getelementptr inbounds nuw %struct.aiString, ptr %6, i32 0, i32 0
  store i32 %13, ptr %14, align 4
  %15 = getelementptr inbounds nuw %struct.aiString, ptr %6, i32 0, i32 0
  %16 = load i32, ptr %15, align 4
  %17 = zext i32 %16 to i64
  %18 = icmp ugt i64 %17, 1023
  br i1 %18, label %19, label %21

19:                                               ; preds = %10
  %20 = getelementptr inbounds nuw %struct.aiString, ptr %6, i32 0, i32 0
  store i32 1023, ptr %20, align 4
  br label %21

21:                                               ; preds = %19, %10
  %22 = getelementptr inbounds nuw %struct.aiString, ptr %6, i32 0, i32 1
  %23 = getelementptr inbounds [1024 x i8], ptr %22, i64 0, i64 0
  %24 = load ptr, ptr %5, align 8
  %25 = getelementptr inbounds nuw %struct.aiString, ptr %24, i32 0, i32 1
  %26 = getelementptr inbounds [1024 x i8], ptr %25, i64 0, i64 0
  %27 = getelementptr inbounds nuw %struct.aiString, ptr %6, i32 0, i32 0
  %28 = load i32, ptr %27, align 4
  %29 = zext i32 %28 to i64
  call void @llvm.memcpy.p0.p0.i64(ptr align 4 %23, ptr align 4 %26, i64 %29, i1 false)
  %30 = getelementptr inbounds nuw %struct.aiString, ptr %6, i32 0, i32 1
  %31 = getelementptr inbounds nuw %struct.aiString, ptr %6, i32 0, i32 0
  %32 = load i32, ptr %31, align 4
  %33 = zext i32 %32 to i64
  %34 = getelementptr inbounds nuw [1024 x i8], ptr %30, i64 0, i64 %33
  store i8 0, ptr %34, align 1
  store ptr %6, ptr %3, align 8
  br label %35

35:                                               ; preds = %21, %9
  %36 = load ptr, ptr %3, align 8
  ret ptr %36
}

; Function Attrs: mustprogress nounwind uwtable
define linkonce_odr hidden void @_ZN8aiStringC2Ev(ptr noundef nonnull align 4 dereferenceable(1028) %0) unnamed_addr #4 comdat align 2 {
  %2 = alloca ptr, align 8
  store ptr %0, ptr %2, align 8
  %3 = load ptr, ptr %2, align 8
  %4 = getelementptr inbounds nuw %struct.aiString, ptr %3, i32 0, i32 0
  store i32 0, ptr %4, align 4
  %5 = getelementptr inbounds nuw %struct.aiString, ptr %3, i32 0, i32 1
  call void @llvm.memset.p0.i64(ptr align 4 %5, i8 0, i64 1024, i1 false)
  ret void
}

; Function Attrs: inlinehint mustprogress nounwind uwtable
define linkonce_odr hidden noundef nonnull align 8 dereferenceable(1060) ptr @_ZN9aiTextureaSERKS_(ptr noundef nonnull align 8 dereferenceable(1060) %0, ptr noundef nonnull align 8 dereferenceable(1060) %1) #2 comdat align 2 {
  %3 = alloca ptr, align 8
  %4 = alloca ptr, align 8
  store ptr %0, ptr %3, align 8
  store ptr %1, ptr %4, align 8
  %5 = load ptr, ptr %3, align 8
  %6 = getelementptr inbounds nuw %struct.aiTexture, ptr %5, i32 0, i32 0
  %7 = load ptr, ptr %4, align 8
  %8 = getelementptr inbounds nuw %struct.aiTexture, ptr %7, i32 0, i32 0
  call void @llvm.memcpy.p0.p0.i64(ptr align 8 %6, ptr align 8 %8, i64 32, i1 false)
  %9 = getelementptr inbounds nuw %struct.aiTexture, ptr %5, i32 0, i32 5
  %10 = load ptr, ptr %4, align 8
  %11 = getelementptr inbounds nuw %struct.aiTexture, ptr %10, i32 0, i32 5
  %12 = call noundef nonnull align 4 dereferenceable(1028) ptr @_ZN8aiStringaSERKS_(ptr noundef nonnull align 4 dereferenceable(1028) %9, ptr noundef nonnull align 4 dereferenceable(1028) %11)
  ret ptr %5
}

; Function Attrs: mustprogress nounwind uwtable
define linkonce_odr hidden void @_ZN9aiTextureC2Ev(ptr noundef nonnull align 8 dereferenceable(1060) %0) unnamed_addr #4 comdat align 2 {
  %2 = alloca ptr, align 8
  store ptr %0, ptr %2, align 8
  %3 = load ptr, ptr %2, align 8
  %4 = getelementptr inbounds nuw %struct.aiTexture, ptr %3, i32 0, i32 0
  store i32 0, ptr %4, align 8
  %5 = getelementptr inbounds nuw %struct.aiTexture, ptr %3, i32 0, i32 1
  store i32 0, ptr %5, align 4
  %6 = getelementptr inbounds nuw %struct.aiTexture, ptr %3, i32 0, i32 4
  store ptr null, ptr %6, align 8
  %7 = getelementptr inbounds nuw %struct.aiTexture, ptr %3, i32 0, i32 5
  call void @_ZN8aiStringC2Ev(ptr noundef nonnull align 4 dereferenceable(1028) %7) #17
  %8 = getelementptr inbounds nuw %struct.aiTexture, ptr %3, i32 0, i32 2
  %9 = getelementptr inbounds [9 x i8], ptr %8, i64 0, i64 0
  call void @llvm.memset.p0.i64(ptr align 8 %9, i8 0, i64 9, i1 false)
  ret void
}

; Function Attrs: mustprogress uwtable
define void @_ZN6Assimp13SceneCombiner4CopyEPP9aiTexturePKS1_(ptr noundef %0, ptr noundef %1) #0 align 2 {
  %3 = alloca ptr, align 8
  %4 = alloca ptr, align 8
  %5 = alloca ptr, align 8
  %6 = alloca ptr, align 8
  %7 = alloca i32, align 4
  %8 = alloca i32, align 4
  store ptr %0, ptr %3, align 8
  store ptr %1, ptr %4, align 8
  %9 = load ptr, ptr %3, align 8
  %10 = icmp eq ptr null, %9
  br i1 %10, label %14, label %11

11:                                               ; preds = %2
  %12 = load ptr, ptr %4, align 8
  %13 = icmp eq ptr null, %12
  br i1 %13, label %14, label %15

14:                                               ; preds = %11, %2
  br label %70

15:                                               ; preds = %11
  call void @llvm.lifetime.start.p0(i64 8, ptr %5) #17
  %16 = call noalias noundef nonnull ptr @_Znwm(i64 noundef 1064) #19
  call void @_ZN9aiTextureC2Ev(ptr noundef nonnull align 8 dereferenceable(1060) %16) #17
  %17 = load ptr, ptr %3, align 8
  store ptr %16, ptr %17, align 8
  store ptr %16, ptr %5, align 8
  %18 = load ptr, ptr %4, align 8
  %19 = load ptr, ptr %5, align 8
  %20 = call noundef nonnull align 8 dereferenceable(1060) ptr @_ZN9aiTextureaSERKS_(ptr noundef nonnull align 8 dereferenceable(1060) %19, ptr noundef nonnull align 8 dereferenceable(1060) %18)
  call void @llvm.lifetime.start.p0(i64 8, ptr %6) #17
  %21 = load ptr, ptr %5, align 8
  %22 = getelementptr inbounds nuw %struct.aiTexture, ptr %21, i32 0, i32 4
  %23 = load ptr, ptr %22, align 8
  store ptr %23, ptr %6, align 8
  %24 = load ptr, ptr %6, align 8
  %25 = icmp ne ptr %24, null
  br i1 %25, label %26, label %67

26:                                               ; preds = %15
  call void @llvm.lifetime.start.p0(i64 4, ptr %7) #17
  %27 = load ptr, ptr %5, align 8
  %28 = getelementptr inbounds nuw %struct.aiTexture, ptr %27, i32 0, i32 1
  %29 = load i32, ptr %28, align 4
  %30 = icmp ne i32 %29, 0
  br i1 %30, label %35, label %31

31:                                               ; preds = %26
  %32 = load ptr, ptr %5, align 8
  %33 = getelementptr inbounds nuw %struct.aiTexture, ptr %32, i32 0, i32 0
  %34 = load i32, ptr %33, align 8
  store i32 %34, ptr %7, align 4
  br label %46

35:                                               ; preds = %26
  %36 = load ptr, ptr %5, align 8
  %37 = getelementptr inbounds nuw %struct.aiTexture, ptr %36, i32 0, i32 1
  %38 = load i32, ptr %37, align 4
  %39 = load ptr, ptr %5, align 8
  %40 = getelementptr inbounds nuw %struct.aiTexture, ptr %39, i32 0, i32 0
  %41 = load i32, ptr %40, align 8
  %42 = mul i32 %38, %41
  %43 = zext i32 %42 to i64
  %44 = mul i64 %43, 4
  %45 = trunc i64 %44 to i32
  store i32 %45, ptr %7, align 4
  br label %46

46:                                               ; preds = %35, %31
  %47 = load i32, ptr %7, align 4
  %48 = icmp ne i32 %47, 0
  br i1 %48, label %52, label %49

49:                                               ; preds = %46
  %50 = load ptr, ptr %5, align 8
  %51 = getelementptr inbounds nuw %struct.aiTexture, ptr %50, i32 0, i32 4
  store ptr null, ptr %51, align 8
  store i32 1, ptr %8, align 4
  br label %64

52:                                               ; preds = %46
  %53 = load i32, ptr %7, align 4
  %54 = zext i32 %53 to i64
  %55 = call noalias noundef nonnull ptr @_Znam(i64 noundef %54) #19
  %56 = load ptr, ptr %5, align 8
  %57 = getelementptr inbounds nuw %struct.aiTexture, ptr %56, i32 0, i32 4
  store ptr %55, ptr %57, align 8
  %58 = load ptr, ptr %5, align 8
  %59 = getelementptr inbounds nuw %struct.aiTexture, ptr %58, i32 0, i32 4
  %60 = load ptr, ptr %59, align 8
  %61 = load ptr, ptr %6, align 8
  %62 = load i32, ptr %7, align 4
  %63 = zext i32 %62 to i64
  call void @llvm.memcpy.p0.p0.i64(ptr align 1 %60, ptr align 1 %61, i64 %63, i1 false)
  store i32 0, ptr %8, align 4
  br label %64

64:                                               ; preds = %52, %49
  call void @llvm.lifetime.end.p0(i64 4, ptr %7) #17
  %65 = load i32, ptr %8, align 4
  switch i32 %65, label %68 [
    i32 0, label %66
  ]

66:                                               ; preds = %64
  br label %67

67:                                               ; preds = %66, %15
  store i32 0, ptr %8, align 4
  br label %68

68:                                               ; preds = %67, %64
  call void @llvm.lifetime.end.p0(i64 8, ptr %6) #17
  call void @llvm.lifetime.end.p0(i64 8, ptr %5) #17
  %69 = load i32, ptr %8, align 4
  switch i32 %69, label %71 [
    i32 0, label %70
    i32 1, label %70
  ]

70:                                               ; preds = %14, %68, %68
  ret void

71:                                               ; preds = %68
  unreachable
}