; Function Attrs: mustprogress uwtable
define void @_ZN6Assimp13SceneCombiner4CopyEPP9aiTexturePKS1_(ptr noundef writeonly captures(address_is_null) %0, ptr noundef readonly captures(address) %1) local_unnamed_addr #0 align 2 {
  %3 = icmp eq ptr %0, null
  %4 = icmp eq ptr %1, null
  %or.cond = or i1 %3, %4
  br i1 %or.cond, label %29, label %5

5:                                                ; preds = %2
  %6 = tail call noalias noundef nonnull dereferenceable(1064) ptr @_Znwm(i64 noundef 1064) #22
  %7 = getelementptr inbounds nuw i8, ptr %6, i64 24
  %8 = getelementptr inbounds nuw i8, ptr %6, i64 32
  tail call void @llvm.memset.p0.i64(ptr noundef nonnull align 8 dereferenceable(1036) %8, i8 0, i64 1028, i1 false)
  store ptr %6, ptr %0, align 8
  tail call void @llvm.memcpy.p0.p0.i64(ptr noundef nonnull align 8 dereferenceable(1060) %6, ptr noundef nonnull align 8 dereferenceable(1060) %1, i64 32, i1 false)
  %9 = icmp eq ptr %6, %1
  br i1 %9, label %_ZN9aiTextureaSERKS_.exit, label %10

10:                                               ; preds = %5
  %11 = getelementptr inbounds nuw i8, ptr %1, i64 32
  %12 = getelementptr inbounds nuw i8, ptr %6, i64 32
  %13 = load i32, ptr %11, align 4
  %spec.select.i.i = tail call i32 @llvm.umin.i32(i32 %13, i32 1023)
  store i32 %spec.select.i.i, ptr %12, align 4
  %14 = getelementptr inbounds nuw i8, ptr %6, i64 36
  %15 = getelementptr inbounds nuw i8, ptr %1, i64 36
  %16 = zext nneg i32 %spec.select.i.i to i64
  tail call void @llvm.memcpy.p0.p0.i64(ptr nonnull align 4 %14, ptr nonnull align 4 %15, i64 %16, i1 false)
  %17 = getelementptr inbounds nuw [1024 x i8], ptr %14, i64 0, i64 %16
  store i8 0, ptr %17, align 1
  br label %_ZN9aiTextureaSERKS_.exit

_ZN9aiTextureaSERKS_.exit:                        ; preds = %5, %10
  %18 = load ptr, ptr %7, align 8
  %.not = icmp eq ptr %18, null
  br i1 %.not, label %29, label %19

19:                                               ; preds = %_ZN9aiTextureaSERKS_.exit
  %20 = getelementptr inbounds nuw i8, ptr %6, i64 4
  %21 = load i32, ptr %20, align 4
  %.not24 = icmp eq i32 %21, 0
  %22 = load i32, ptr %6, align 8
  %23 = shl i32 %21, 2
  %24 = select i1 %.not24, i32 1, i32 %23
  %.019 = mul i32 %22, %24
  %.not25.not = icmp eq i32 %.019, 0
  br i1 %.not25.not, label %25, label %26

25:                                               ; preds = %19
  store ptr null, ptr %7, align 8
  br label %29

26:                                               ; preds = %19
  %27 = zext i32 %.019 to i64
  %28 = tail call noalias noundef nonnull ptr @_Znam(i64 noundef %27) #22
  store ptr %28, ptr %7, align 8
  tail call void @llvm.memcpy.p0.p0.i64(ptr nonnull align 1 %28, ptr nonnull align 1 %18, i64 %27, i1 false)
  br label %29

29:                                               ; preds = %25, %26, %_ZN9aiTextureaSERKS_.exit, %2
  ret void
}